(dp0
I1000
(dp1
S'degree_dict'
p2
(dp3
I1
I38868
sI2
I37907
sI3
I14003
sI4
I5535
sI5
I2203
sI6
I870
sI7
I359
sI8
I145
sI9
I69
sI10
I22
sI11
I13
sI12
I2
sI13
I3
sI14
I1
ssS'exper_dict'
p4
(dp5
I1
I100
sI2
I100
sI3
I100
sI4
I100
sI5
I100
sI6
I100
sI7
I100
sI8
I100
sI9
I100
sI10
I98
sI11
I95
sI12
I43
sI13
I67
sI14
I70
sssI1500
(dp6
g2
(dp7
I1
I58468
sI2
I56674
sI3
I21121
sI4
I8217
sI5
I3322
sI6
I1391
sI7
I529
sI8
I222
sI9
I89
sI10
I39
sI11
I14
sI12
I9
sI13
I5
ssg4
(dp8
I1
I100
sI2
I100
sI3
I100
sI4
I100
sI5
I100
sI6
I100
sI7
I100
sI8
I99
sI9
I100
sI10
I97
sI11
I100
sI12
I97
sI13
I95
sssI500
(dp9
g2
(dp10
I1
I19716
sI2
I18711
sI3
I7106
sI4
I2778
sI5
I1179
sI6
I416
sI7
I180
sI8
I73
sI9
I24
sI10
I11
sI11
I3
sI12
I2
sI14
I1
ssg4
(dp11
I1
I100
sI2
I100
sI3
I100
sI4
I100
sI5
I100
sI6
I100
sI7
I100
sI8
I98
sI9
I100
sI10
I97
sI11
I74
sI12
I44
sI14
I8
sss.